target datalayout = "e-m:e-p270:32:32-p271:32:32-p272:64:64-i64:64-i128:128-f80:128-n8:16:32:64-S128"
target triple = "x86_64-pc-linux-gnu"

; Function Attrs: mustprogress uwtable
define noundef zeroext i1 @_ZN5arrow8internal20OptionalBitmapEqualsEPKhlS2_ll(ptr noundef %0, i64 noundef %1, ptr noundef %2, i64 noundef %3, i64 noundef %4) #0 {
  %6 = alloca i1, align 1
  %7 = alloca ptr, align 8
  %8 = alloca i64, align 8
  %9 = alloca ptr, align 8
  %10 = alloca i64, align 8
  %11 = alloca i64, align 8
  store ptr %0, ptr %7, align 8, !tbaa !3
  store i64 %1, ptr %8, align 8, !tbaa !8
  store ptr %2, ptr %9, align 8, !tbaa !3
  store i64 %3, ptr %10, align 8, !tbaa !8
  store i64 %4, ptr %11, align 8, !tbaa !8
  %12 = load ptr, ptr %7, align 8, !tbaa !3
  %13 = icmp eq ptr %12, null
  br i1 %13, label %14, label %18

14:                                               ; preds = %5
  %15 = load ptr, ptr %9, align 8, !tbaa !3
  %16 = icmp eq ptr %15, null
  br i1 %16, label %17, label %18

17:                                               ; preds = %14
  store i1 true, ptr %6, align 1
  br label %48

18:                                               ; preds = %14, %5
  %19 = load ptr, ptr %7, align 8, !tbaa !3
  %20 = icmp ne ptr %19, null
  br i1 %20, label %21, label %31

21:                                               ; preds = %18
  %22 = load ptr, ptr %9, align 8, !tbaa !3
  %23 = icmp ne ptr %22, null
  br i1 %23, label %24, label %31

24:                                               ; preds = %21
  %25 = load ptr, ptr %7, align 8, !tbaa !3
  %26 = load i64, ptr %8, align 8, !tbaa !8
  %27 = load ptr, ptr %9, align 8, !tbaa !3
  %28 = load i64, ptr %10, align 8, !tbaa !8
  %29 = load i64, ptr %11, align 8, !tbaa !8
  %30 = call noundef zeroext i1 @_ZN5arrow8internal12BitmapEqualsEPKhlS2_ll(ptr noundef %25, i64 noundef %26, ptr noundef %27, i64 noundef %28, i64 noundef %29)
  store i1 %30, ptr %6, align 1
  br label %48

31:                                               ; preds = %21, %18
  %32 = load ptr, ptr %7, align 8, !tbaa !3
  %33 = icmp ne ptr %32, null
  br i1 %33, label %34, label %41

34:                                               ; preds = %31
  %35 = load ptr, ptr %7, align 8, !tbaa !3
  %36 = load i64, ptr %8, align 8, !tbaa !8
  %37 = load i64, ptr %11, align 8, !tbaa !8
  %38 = call noundef i64 @_ZN5arrow8internal12CountSetBitsEPKhll(ptr noundef %35, i64 noundef %36, i64 noundef %37)
  %39 = load i64, ptr %11, align 8, !tbaa !8
  %40 = icmp eq i64 %38, %39
  store i1 %40, ptr %6, align 1
  br label %48

41:                                               ; preds = %31
  %42 = load ptr, ptr %9, align 8, !tbaa !3
  %43 = load i64, ptr %10, align 8, !tbaa !8
  %44 = load i64, ptr %11, align 8, !tbaa !8
  %45 = call noundef i64 @_ZN5arrow8internal12CountSetBitsEPKhll(ptr noundef %42, i64 noundef %43, i64 noundef %44)
  %46 = load i64, ptr %11, align 8, !tbaa !8
  %47 = icmp eq i64 %45, %46
  store i1 %47, ptr %6, align 1
  br label %48

48:                                               ; preds = %41, %34, %24, %17
  %49 = load i1, ptr %6, align 1
  ret i1 %49
}