; Function Attrs: mustprogress nofree nounwind willreturn memory(argmem: read) uwtable
define noundef zeroext i1 @_ZN5arrow8internal20OptionalBitmapEqualsEPKhlS2_ll(ptr noundef readonly %0, i64 noundef %1, ptr noundef readonly %2, i64 noundef %3, i64 noundef %4) local_unnamed_addr #8 {
  %6 = icmp eq ptr %0, null
  %7 = icmp eq ptr %2, null
  %or.cond = and i1 %6, %7
  br i1 %or.cond, label %20, label %8

8:                                                ; preds = %5
  %9 = icmp ne ptr %0, null
  %10 = icmp ne ptr %2, null
  %or.cond3 = and i1 %9, %10
  br i1 %or.cond3, label %11, label %13

11:                                               ; preds = %8
  %12 = tail call noundef zeroext i1 @_ZN5arrow8internal12BitmapEqualsEPKhlS2_ll(ptr noundef nonnull %0, i64 noundef %1, ptr noundef nonnull %2, i64 noundef %3, i64 noundef %4)
  br label %20

13:                                               ; preds = %8
  br i1 %9, label %14, label %17

14:                                               ; preds = %13
  %15 = tail call noundef i64 @_ZN5arrow8internal12CountSetBitsEPKhll(ptr noundef nonnull %0, i64 noundef %1, i64 noundef %4)
  %16 = icmp eq i64 %15, %4
  br label %20

17:                                               ; preds = %13
  %18 = tail call noundef i64 @_ZN5arrow8internal12CountSetBitsEPKhll(ptr noundef %2, i64 noundef %3, i64 noundef %4)
  %19 = icmp eq i64 %18, %4
  br label %20

20:                                               ; preds = %5, %17, %14, %11
  %.0 = phi i1 [ %12, %11 ], [ %16, %14 ], [ %19, %17 ], [ true, %5 ]
  ret i1 %.0
}